target datalayout = "e-m:e-p270:32:32-p271:32:32-p272:64:64-i64:64-i128:128-f80:128-n8:16:32:64-S128"
target triple = "x86_64-pc-linux-gnu"

@.str.1 = private unnamed_addr constant [5 x i8] c"priv\00", align 1
@.str.2 = private unnamed_addr constant [4 x i8] c"pub\00", align 1

; Function Attrs: nounwind uwtable
define i32 @ossl_dh_key_todata(ptr noundef %0, ptr noundef %1, ptr noundef %2, i32 noundef %3) #0 {
  %5 = alloca i32, align 4
  %6 = alloca ptr, align 8
  %7 = alloca ptr, align 8
  %8 = alloca ptr, align 8
  %9 = alloca i32, align 4
  %10 = alloca ptr, align 8
  %11 = alloca ptr, align 8
  %12 = alloca i32, align 4
  store ptr %0, ptr %6, align 8, !tbaa !3
  store ptr %1, ptr %7, align 8, !tbaa !18
  store ptr %2, ptr %8, align 8, !tbaa !8
  store i32 %3, ptr %9, align 4, !tbaa !14
  call void @llvm.lifetime.start.p0(i64 8, ptr %10) #4
  store ptr null, ptr %10, align 8, !tbaa !16
  call void @llvm.lifetime.start.p0(i64 8, ptr %11) #4
  store ptr null, ptr %11, align 8, !tbaa !16
  %13 = load ptr, ptr %6, align 8, !tbaa !3
  %14 = icmp eq ptr %13, null
  br i1 %14, label %15, label %16

15:                                               ; preds = %4
  store i32 0, ptr %5, align 4
  store i32 1, ptr %12, align 4
  br label %41

16:                                               ; preds = %4
  %17 = load ptr, ptr %6, align 8, !tbaa !3
  call void @DH_get0_key(ptr noundef %17, ptr noundef %11, ptr noundef %10)
  %18 = load ptr, ptr %10, align 8, !tbaa !16
  %19 = icmp ne ptr %18, null
  br i1 %19, label %20, label %30

20:                                               ; preds = %16
  %21 = load i32, ptr %9, align 4, !tbaa !14
  %22 = icmp ne i32 %21, 0
  br i1 %22, label %23, label %30

23:                                               ; preds = %20
  %24 = load ptr, ptr %7, align 8, !tbaa !18
  %25 = load ptr, ptr %8, align 8, !tbaa !8
  %26 = load ptr, ptr %10, align 8, !tbaa !16
  %27 = call i32 @ossl_param_build_set_bn(ptr noundef %24, ptr noundef %25, ptr noundef @.str.1, ptr noundef %26)
  %28 = icmp ne i32 %27, 0
  br i1 %28, label %30, label %29

29:                                               ; preds = %23
  store i32 0, ptr %5, align 4
  store i32 1, ptr %12, align 4
  br label %41

30:                                               ; preds = %23, %20, %16
  %31 = load ptr, ptr %11, align 8, !tbaa !16
  %32 = icmp ne ptr %31, null
  br i1 %32, label %33, label %40

33:                                               ; preds = %30
  %34 = load ptr, ptr %7, align 8, !tbaa !18
  %35 = load ptr, ptr %8, align 8, !tbaa !8
  %36 = load ptr, ptr %11, align 8, !tbaa !16
  %37 = call i32 @ossl_param_build_set_bn(ptr noundef %34, ptr noundef %35, ptr noundef @.str.2, ptr noundef %36)
  %38 = icmp ne i32 %37, 0
  br i1 %38, label %40, label %39

39:                                               ; preds = %33
  store i32 0, ptr %5, align 4
  store i32 1, ptr %12, align 4
  br label %41

40:                                               ; preds = %33, %30
  store i32 1, ptr %5, align 4
  store i32 1, ptr %12, align 4
  br label %41

41:                                               ; preds = %40, %39, %29, %15
  call void @llvm.lifetime.end.p0(i64 8, ptr %11) #4
  call void @llvm.lifetime.end.p0(i64 8, ptr %10) #4
  %42 = load i32, ptr %5, align 4
  ret i32 %42
}