; Function Attrs: nounwind uwtable
define range(i32 0, 2) i32 @ossl_dh_key_todata(ptr noundef %0, ptr noundef %1, ptr noundef %2, i32 noundef %3) local_unnamed_addr #0 {
  %5 = alloca ptr, align 8
  %6 = alloca ptr, align 8
  call void @llvm.lifetime.start.p0(i64 8, ptr nonnull %5) #3
  store ptr null, ptr %5, align 8, !tbaa !7
  call void @llvm.lifetime.start.p0(i64 8, ptr nonnull %6) #3
  store ptr null, ptr %6, align 8, !tbaa !7
  %7 = icmp eq ptr %0, null
  br i1 %7, label %19, label %8

8:                                                ; preds = %4
  call void @DH_get0_key(ptr noundef nonnull %0, ptr noundef nonnull %6, ptr noundef nonnull %5) #3
  %9 = load ptr, ptr %5, align 8, !tbaa !7
  %10 = icmp ne ptr %9, null
  %11 = icmp ne i32 %3, 0
  %or.cond = and i1 %11, %10
  br i1 %or.cond, label %12, label %14

12:                                               ; preds = %8
  %13 = call i32 @ossl_param_build_set_bn(ptr noundef %1, ptr noundef %2, ptr noundef nonnull @.str.1, ptr noundef nonnull %9) #3
  %.not = icmp eq i32 %13, 0
  br i1 %.not, label %19, label %14

14:                                               ; preds = %12, %8
  %15 = load ptr, ptr %6, align 8, !tbaa !7
  %.not11 = icmp eq ptr %15, null
  br i1 %.not11, label %18, label %16

16:                                               ; preds = %14
  %17 = call i32 @ossl_param_build_set_bn(ptr noundef %1, ptr noundef %2, ptr noundef nonnull @.str.2, ptr noundef nonnull %15) #3
  %.not12 = icmp eq i32 %17, 0
  br i1 %.not12, label %19, label %18

18:                                               ; preds = %16, %14
  br label %19

19:                                               ; preds = %16, %12, %4, %18
  %.0 = phi i32 [ 1, %18 ], [ 0, %4 ], [ 0, %12 ], [ 0, %16 ]
  call void @llvm.lifetime.end.p0(i64 8, ptr nonnull %6) #3
  call void @llvm.lifetime.end.p0(i64 8, ptr nonnull %5) #3
  ret i32 %.0
}